; Function Attrs: mustprogress uwtable
define dso_local void @_ZN25cmCPackInnoSetupGenerator18PrepareForConstantERKNSt7__cxx1112basic_stringIcSt11char_traitsIcESaIcEEE(ptr dead_on_unwind noalias nonnull writable sret(%"class.std::__cxx11::basic_string") align 8 %0, ptr nocapture nonnull readnone align 8 %1, ptr noundef nonnull align 8 dereferenceable(32) %2) local_unnamed_addr #3 align 2 personality ptr @__gxx_personality_v0 {
  tail call void @_ZNSt7__cxx1112basic_stringIcSt11char_traitsIcESaIcEEC1ERKS4_(ptr noundef nonnull align 8 dereferenceable(32) %0, ptr noundef nonnull align 8 dereferenceable(32) %2)
  invoke void @_ZN5cmsys11SystemTools13ReplaceStringERNSt7__cxx1112basic_stringIcSt11char_traitsIcESaIcEEEPKcS9_(ptr noundef nonnull align 8 dereferenceable(32) %0, ptr noundef nonnull @.str.213, ptr noundef nonnull @.str.214)
          to label %4 unwind label %8

4:                                                ; preds = %3
  invoke void @_ZN5cmsys11SystemTools13ReplaceStringERNSt7__cxx1112basic_stringIcSt11char_traitsIcESaIcEEEPKcS9_(ptr noundef nonnull align 8 dereferenceable(32) %0, ptr noundef nonnull @.str.211, ptr noundef nonnull @.str.215)
          to label %5 unwind label %8

5:                                                ; preds = %4
  invoke void @_ZN5cmsys11SystemTools13ReplaceStringERNSt7__cxx1112basic_stringIcSt11char_traitsIcESaIcEEEPKcS9_(ptr noundef nonnull align 8 dereferenceable(32) %0, ptr noundef nonnull @.str.216, ptr noundef nonnull @.str.217)
          to label %6 unwind label %8

6:                                                ; preds = %5
  invoke void @_ZN5cmsys11SystemTools13ReplaceStringERNSt7__cxx1112basic_stringIcSt11char_traitsIcESaIcEEEPKcS9_(ptr noundef nonnull align 8 dereferenceable(32) %0, ptr noundef nonnull @.str.218, ptr noundef nonnull @.str.219)
          to label %7 unwind label %8

7:                                                ; preds = %6
  invoke void @_ZN5cmsys11SystemTools13ReplaceStringERNSt7__cxx1112basic_stringIcSt11char_traitsIcESaIcEEEPKcS9_(ptr noundef nonnull align 8 dereferenceable(32) %0, ptr noundef nonnull @.str.220, ptr noundef nonnull @.str.221)
          to label %10 unwind label %8

8:                                                ; preds = %7, %6, %5, %4, %3
  %9 = landingpad { ptr, i32 }
          cleanup
  tail call void @_ZNSt7__cxx1112basic_stringIcSt11char_traitsIcESaIcEED1Ev(ptr noundef nonnull align 8 dereferenceable(32) %0) #19
  resume { ptr, i32 } %9

10:                                               ; preds = %7
  ret void
}